target datalayout = "e-m:e-p270:32:32-p271:32:32-p272:64:64-i64:64-i128:128-f80:128-n8:16:32:64-S128"
target triple = "x86_64-pc-linux-gnu"

%"class.smt::theory_array" = type <{ %"class.smt::theory_array_base.base", [7 x i8], %class.ptr_vector.20, ptr, %"struct.smt::theory_array_stats", [4 x i8], %class.union_find, %class.trail_stack, i32, [4 x i8] }>
%"class.smt::theory_array_base.base" = type <{ %"class.smt::theory.base", i8, [2 x i8], i32, [4 x i8], %class.svector.1, %class.ptr_vector, %class.svector.3, %class.svector.3, %class.svector.3, %class.scoped_ptr, %class.ptr_vector.5, %class.obj_map, %class.ptr_hashtable, %class.svector.9, ptr, %class.ptr_vector, %class.ptr_vector.11, %class.svector.1, %class.obj_map.13, %class.ptr_vector, %class.ptr_vector.18, i8 }>
%"class.smt::theory.base" = type <{ ptr, i32, [4 x i8], ptr, ptr, %class.ptr_vector, %class.svector, i32, i8 }>
%class.svector = type { %class.vector.0 }
%class.vector.0 = type { ptr }
%class.svector.3 = type { %class.vector.4 }
%class.vector.4 = type { ptr }
%class.scoped_ptr = type { ptr }
%class.ptr_vector.5 = type { %class.vector.6 }
%class.vector.6 = type { ptr }
%class.obj_map = type { %class.core_hashtable }
%class.core_hashtable = type <{ ptr, i32, i32, i32, [4 x i8] }>
%class.ptr_hashtable = type { %class.core_hashtable.base.8, [4 x i8] }
%class.core_hashtable.base.8 = type <{ ptr, i32, i32, i32 }>
%class.svector.9 = type { %class.vector.10 }
%class.vector.10 = type { ptr }
%class.ptr_vector.11 = type { %class.vector.12 }
%class.vector.12 = type { ptr }
%class.svector.1 = type { %class.vector.2 }
%class.vector.2 = type { ptr }
%class.obj_map.13 = type { %class.core_hashtable.14 }
%class.core_hashtable.14 = type <{ ptr, i32, i32, i32, [4 x i8] }>
%class.ptr_vector = type { %class.vector }
%class.vector = type { ptr }
%class.ptr_vector.18 = type { %class.vector.19 }
%class.vector.19 = type { ptr }
%class.ptr_vector.20 = type { %class.vector.21 }
%class.vector.21 = type { ptr }
%"struct.smt::theory_array_stats" = type { i32, i32, i32, i32, i32, i32, i32, i32, i32, i32, i32, i32, i32 }
%class.union_find = type { ptr, ptr, %class.svector, %class.svector, %class.svector, %"class.union_find<smt::theory_array>::mk_var_trail" }
%"class.union_find<smt::theory_array>::mk_var_trail" = type { %class.trail, ptr }
%class.trail = type { ptr }
%class.trail_stack = type { %class.ptr_vector.22, %class.svector, %class.region }
%class.ptr_vector.22 = type { %class.vector.23 }
%class.vector.23 = type { ptr }
%class.region = type { ptr, ptr, ptr, ptr, ptr }
%"struct.smt::theory_array::var_data" = type <{ %class.ptr_vector, %class.ptr_vector, %class.ptr_vector, i8, i8, i8, [5 x i8] }>

; Function Attrs: mustprogress nounwind uwtable
define linkonce_odr hidden noundef nonnull align 8 dereferenceable(8) ptr @_ZN6vectorIPN3smt5enodeELb0EjEixEj(ptr noundef nonnull align 8 dereferenceable(8) %0, i32 noundef %1) #4 comdat align 2 {
  %3 = alloca ptr, align 8
  %4 = alloca i32, align 4
  store ptr %0, ptr %3, align 8, !tbaa !585
  store i32 %1, ptr %4, align 4, !tbaa !8
  %5 = load ptr, ptr %3, align 8
  %6 = getelementptr inbounds nuw %class.vector, ptr %5, i32 0, i32 0
  %7 = load ptr, ptr %6, align 8, !tbaa !587
  %8 = load i32, ptr %4, align 4, !tbaa !8
  %9 = zext i32 %8 to i64
  %10 = getelementptr inbounds nuw ptr, ptr %7, i64 %9
  ret ptr %10
}

; Function Attrs: mustprogress nounwind uwtable
define linkonce_odr hidden noundef i32 @_ZNK6vectorIPN3smt5enodeELb0EjE4sizeEv(ptr noundef nonnull align 8 dereferenceable(8) %0) #4 comdat align 2 {
  %2 = alloca i32, align 4
  %3 = alloca ptr, align 8
  store ptr %0, ptr %3, align 8, !tbaa !585
  %4 = load ptr, ptr %3, align 8
  %5 = getelementptr inbounds nuw %class.vector, ptr %4, i32 0, i32 0
  %6 = load ptr, ptr %5, align 8, !tbaa !587
  %7 = icmp eq ptr %6, null
  br i1 %7, label %8, label %9

8:                                                ; preds = %1
  store i32 0, ptr %2, align 4
  br label %14

9:                                                ; preds = %1
  %10 = getelementptr inbounds nuw %class.vector, ptr %4, i32 0, i32 0
  %11 = load ptr, ptr %10, align 8, !tbaa !587
  %12 = getelementptr inbounds i32, ptr %11, i64 -1
  %13 = load i32, ptr %12, align 4, !tbaa !8
  store i32 %13, ptr %2, align 4
  br label %14

14:                                               ; preds = %9, %8
  %15 = load i32, ptr %2, align 4
  ret i32 %15
}

; Function Attrs: mustprogress nounwind uwtable
define linkonce_odr hidden noundef nonnull align 8 dereferenceable(8) ptr @_ZN6vectorIPN3smt12theory_array8var_dataELb0EjEixEj(ptr noundef nonnull align 8 dereferenceable(8) %0, i32 noundef %1) #4 comdat align 2 {
  %3 = alloca ptr, align 8
  %4 = alloca i32, align 4
  store ptr %0, ptr %3, align 8, !tbaa !569
  store i32 %1, ptr %4, align 4, !tbaa !8
  %5 = load ptr, ptr %3, align 8
  %6 = getelementptr inbounds nuw %class.vector.21, ptr %5, i32 0, i32 0
  %7 = load ptr, ptr %6, align 8, !tbaa !578
  %8 = load i32, ptr %4, align 4, !tbaa !8
  %9 = zext i32 %8 to i64
  %10 = getelementptr inbounds nuw ptr, ptr %7, i64 %9
  ret ptr %10
}

; Function Attrs: mustprogress uwtable
define hidden void @_ZN3smt12theory_array8merge_ehEiiii(ptr noundef nonnull align 8 dereferenceable(444) %0, i32 noundef %1, i32 noundef %2, i32 noundef %3, i32 noundef %4) unnamed_addr #6 align 2 {
  %6 = alloca ptr, align 8
  %7 = alloca i32, align 4
  %8 = alloca i32, align 4
  %9 = alloca i32, align 4
  %10 = alloca i32, align 4
  %11 = alloca ptr, align 8
  %12 = alloca ptr, align 8
  %13 = alloca i32, align 4
  %14 = alloca i32, align 4
  %15 = alloca i32, align 4
  store ptr %0, ptr %6, align 8, !tbaa !28
  store i32 %1, ptr %7, align 4, !tbaa !8
  store i32 %2, ptr %8, align 4, !tbaa !8
  store i32 %3, ptr %9, align 4, !tbaa !8
  store i32 %4, ptr %10, align 4, !tbaa !8
  %16 = load ptr, ptr %6, align 8
  call void @llvm.lifetime.start.p0(i64 8, ptr %11) #3
  %17 = getelementptr inbounds nuw %"class.smt::theory_array", ptr %16, i32 0, i32 2
  %18 = load i32, ptr %7, align 4, !tbaa !8
  %19 = call noundef nonnull align 8 dereferenceable(8) ptr @_ZN6vectorIPN3smt12theory_array8var_dataELb0EjEixEj(ptr noundef nonnull align 8 dereferenceable(8) %17, i32 noundef %18)
  %20 = load ptr, ptr %19, align 8, !tbaa !574
  store ptr %20, ptr %11, align 8, !tbaa !574
  call void @llvm.lifetime.start.p0(i64 8, ptr %12) #3
  %21 = getelementptr inbounds nuw %"class.smt::theory_array", ptr %16, i32 0, i32 2
  %22 = load i32, ptr %8, align 4, !tbaa !8
  %23 = call noundef nonnull align 8 dereferenceable(8) ptr @_ZN6vectorIPN3smt12theory_array8var_dataELb0EjEixEj(ptr noundef nonnull align 8 dereferenceable(8) %21, i32 noundef %22)
  %24 = load ptr, ptr %23, align 8, !tbaa !574
  store ptr %24, ptr %12, align 8, !tbaa !574
  %25 = load ptr, ptr %11, align 8, !tbaa !574
  %26 = getelementptr inbounds nuw %"struct.smt::theory_array::var_data", ptr %25, i32 0, i32 3
  %27 = load i8, ptr %26, align 8, !tbaa !579, !range !12, !noundef !13
  %28 = trunc i8 %27 to i1
  br i1 %28, label %39, label %29

29:                                               ; preds = %5
  %30 = load ptr, ptr %12, align 8, !tbaa !574
  %31 = getelementptr inbounds nuw %"struct.smt::theory_array::var_data", ptr %30, i32 0, i32 3
  %32 = load i8, ptr %31, align 8, !tbaa !579, !range !12, !noundef !13
  %33 = trunc i8 %32 to i1
  br i1 %33, label %34, label %39

34:                                               ; preds = %29
  %35 = load i32, ptr %7, align 4, !tbaa !8
  %36 = load ptr, ptr %16, align 8, !tbaa !32
  %37 = getelementptr inbounds ptr, ptr %36, i64 49
  %38 = load ptr, ptr %37, align 8
  call void %38(ptr noundef nonnull align 8 dereferenceable(444) %16, i32 noundef %35)
  br label %39

39:                                               ; preds = %34, %29, %5
  call void @llvm.lifetime.start.p0(i64 4, ptr %13) #3
  store i32 0, ptr %13, align 4, !tbaa !8
  br label %40

40:                                               ; preds = %54, %39
  %41 = load i32, ptr %13, align 4, !tbaa !8
  %42 = load ptr, ptr %12, align 8, !tbaa !574
  %43 = getelementptr inbounds nuw %"struct.smt::theory_array::var_data", ptr %42, i32 0, i32 0
  %44 = call noundef i32 @_ZNK6vectorIPN3smt5enodeELb0EjE4sizeEv(ptr noundef nonnull align 8 dereferenceable(8) %43)
  %45 = icmp ult i32 %41, %44
  br i1 %45, label %47, label %46

46:                                               ; preds = %40
  call void @llvm.lifetime.end.p0(i64 4, ptr %13) #3
  br label %57

47:                                               ; preds = %40
  %48 = load i32, ptr %7, align 4, !tbaa !8
  %49 = load ptr, ptr %12, align 8, !tbaa !574
  %50 = getelementptr inbounds nuw %"struct.smt::theory_array::var_data", ptr %49, i32 0, i32 0
  %51 = load i32, ptr %13, align 4, !tbaa !8
  %52 = call noundef nonnull align 8 dereferenceable(8) ptr @_ZN6vectorIPN3smt5enodeELb0EjEixEj(ptr noundef nonnull align 8 dereferenceable(8) %50, i32 noundef %51)
  %53 = load ptr, ptr %52, align 8, !tbaa !581
  call void @_ZN3smt12theory_array9add_storeEiPNS_5enodeE(ptr noundef nonnull align 8 dereferenceable(444) %16, i32 noundef %48, ptr noundef %53)
  br label %54

54:                                               ; preds = %47
  %55 = load i32, ptr %13, align 4, !tbaa !8
  %56 = add i32 %55, 1
  store i32 %56, ptr %13, align 4, !tbaa !8
  br label %40, !llvm.loop !582

57:                                               ; preds = %46
  call void @llvm.lifetime.start.p0(i64 4, ptr %14) #3
  store i32 0, ptr %14, align 4, !tbaa !8
  br label %58

58:                                               ; preds = %72, %57
  %59 = load i32, ptr %14, align 4, !tbaa !8
  %60 = load ptr, ptr %12, align 8, !tbaa !574
  %61 = getelementptr inbounds nuw %"struct.smt::theory_array::var_data", ptr %60, i32 0, i32 2
  %62 = call noundef i32 @_ZNK6vectorIPN3smt5enodeELb0EjE4sizeEv(ptr noundef nonnull align 8 dereferenceable(8) %61)
  %63 = icmp ult i32 %59, %62
  br i1 %63, label %65, label %64

64:                                               ; preds = %58
  call void @llvm.lifetime.end.p0(i64 4, ptr %14) #3
  br label %75

65:                                               ; preds = %58
  %66 = load i32, ptr %7, align 4, !tbaa !8
  %67 = load ptr, ptr %12, align 8, !tbaa !574
  %68 = getelementptr inbounds nuw %"struct.smt::theory_array::var_data", ptr %67, i32 0, i32 2
  %69 = load i32, ptr %14, align 4, !tbaa !8
  %70 = call noundef nonnull align 8 dereferenceable(8) ptr @_ZN6vectorIPN3smt5enodeELb0EjEixEj(ptr noundef nonnull align 8 dereferenceable(8) %68, i32 noundef %69)
  %71 = load ptr, ptr %70, align 8, !tbaa !581
  call void @_ZN3smt12theory_array16add_parent_storeEiPNS_5enodeE(ptr noundef nonnull align 8 dereferenceable(444) %16, i32 noundef %66, ptr noundef %71)
  br label %72

72:                                               ; preds = %65
  %73 = load i32, ptr %14, align 4, !tbaa !8
  %74 = add i32 %73, 1
  store i32 %74, ptr %14, align 4, !tbaa !8
  br label %58, !llvm.loop !583

75:                                               ; preds = %64
  call void @llvm.lifetime.start.p0(i64 4, ptr %15) #3
  store i32 0, ptr %15, align 4, !tbaa !8
  br label %76

76:                                               ; preds = %93, %75
  %77 = load i32, ptr %15, align 4, !tbaa !8
  %78 = load ptr, ptr %12, align 8, !tbaa !574
  %79 = getelementptr inbounds nuw %"struct.smt::theory_array::var_data", ptr %78, i32 0, i32 1
  %80 = call noundef i32 @_ZNK6vectorIPN3smt5enodeELb0EjE4sizeEv(ptr noundef nonnull align 8 dereferenceable(8) %79)
  %81 = icmp ult i32 %77, %80
  br i1 %81, label %83, label %82

82:                                               ; preds = %76
  call void @llvm.lifetime.end.p0(i64 4, ptr %15) #3
  br label %96

83:                                               ; preds = %76
  %84 = load i32, ptr %7, align 4, !tbaa !8
  %85 = load ptr, ptr %12, align 8, !tbaa !574
  %86 = getelementptr inbounds nuw %"struct.smt::theory_array::var_data", ptr %85, i32 0, i32 1
  %87 = load i32, ptr %15, align 4, !tbaa !8
  %88 = call noundef nonnull align 8 dereferenceable(8) ptr @_ZN6vectorIPN3smt5enodeELb0EjEixEj(ptr noundef nonnull align 8 dereferenceable(8) %86, i32 noundef %87)
  %89 = load ptr, ptr %88, align 8, !tbaa !581
  %90 = load ptr, ptr %16, align 8, !tbaa !32
  %91 = getelementptr inbounds ptr, ptr %90, i64 53
  %92 = load ptr, ptr %91, align 8
  call void %92(ptr noundef nonnull align 8 dereferenceable(444) %16, i32 noundef %84, ptr noundef %89)
  br label %93

93:                                               ; preds = %83
  %94 = load i32, ptr %15, align 4, !tbaa !8
  %95 = add i32 %94, 1
  store i32 %95, ptr %15, align 4, !tbaa !8
  br label %76, !llvm.loop !584

96:                                               ; preds = %82
  call void @llvm.lifetime.end.p0(i64 8, ptr %12) #3
  call void @llvm.lifetime.end.p0(i64 8, ptr %11) #3
  ret void
}