; Function Attrs: mustprogress uwtable
define hidden void @_ZN3smt12theory_array8merge_ehEiiii(ptr noundef nonnull align 8 dereferenceable(444) %0, i32 noundef %1, i32 noundef %2, i32 %3, i32 %4) unnamed_addr #4 align 2 {
  %6 = getelementptr inbounds nuw i8, ptr %0, i64 256
  %7 = load ptr, ptr %6, align 8, !tbaa !6
  %8 = zext i32 %1 to i64
  %9 = getelementptr inbounds nuw ptr, ptr %7, i64 %8
  %10 = load ptr, ptr %9, align 8, !tbaa !561
  %11 = zext i32 %2 to i64
  %12 = getelementptr inbounds nuw ptr, ptr %7, i64 %11
  %13 = load ptr, ptr %12, align 8, !tbaa !561
  %14 = getelementptr inbounds nuw i8, ptr %10, i64 24
  %15 = load i8, ptr %14, align 8, !tbaa !566, !range !568, !noundef !569
  %16 = trunc nuw i8 %15 to i1
  br i1 %16, label %.preheader37, label %17

17:                                               ; preds = %5
  %18 = getelementptr inbounds nuw i8, ptr %13, i64 24
  %19 = load i8, ptr %18, align 8, !tbaa !566, !range !568, !noundef !569
  %20 = trunc nuw i8 %19 to i1
  br i1 %20, label %21, label %.preheader37

21:                                               ; preds = %17
  %22 = load ptr, ptr %0, align 8, !tbaa !3
  %23 = getelementptr inbounds nuw i8, ptr %22, i64 392
  %24 = load ptr, ptr %23, align 8
  tail call void %24(ptr noundef nonnull align 8 dereferenceable(444) %0, i32 noundef %1)
  br label %.preheader37

.preheader37:                                     ; preds = %21, %17, %5
  br label %25

25:                                               ; preds = %.preheader37, %34
  %indvars.iv = phi i64 [ %indvars.iv.next, %34 ], [ 0, %.preheader37 ]
  %26 = load ptr, ptr %13, align 8, !tbaa !550
  %27 = icmp eq ptr %26, null
  br i1 %27, label %_ZNK6vectorIPN3smt5enodeELb0EjE4sizeEv.exit, label %28

28:                                               ; preds = %25
  %29 = getelementptr inbounds i8, ptr %26, i64 -4
  %30 = load i32, ptr %29, align 4, !tbaa !560
  %31 = zext i32 %30 to i64
  br label %_ZNK6vectorIPN3smt5enodeELb0EjE4sizeEv.exit

_ZNK6vectorIPN3smt5enodeELb0EjE4sizeEv.exit:      ; preds = %25, %28
  %.0.i = phi i64 [ %31, %28 ], [ 0, %25 ]
  %32 = icmp samesign ult i64 %indvars.iv, %.0.i
  br i1 %32, label %34, label %.preheader29

.preheader29:                                     ; preds = %_ZNK6vectorIPN3smt5enodeELb0EjE4sizeEv.exit
  %33 = getelementptr inbounds nuw i8, ptr %13, i64 16
  br label %37

34:                                               ; preds = %_ZNK6vectorIPN3smt5enodeELb0EjE4sizeEv.exit
  %35 = getelementptr inbounds nuw ptr, ptr %26, i64 %indvars.iv
  %36 = load ptr, ptr %35, align 8, !tbaa !570
  tail call void @_ZN3smt12theory_array9add_storeEiPNS_5enodeE(ptr noundef nonnull align 8 dereferenceable(444) %0, i32 noundef %1, ptr noundef %36)
  %indvars.iv.next = add nuw nsw i64 %indvars.iv, 1
  br label %25, !llvm.loop !571

37:                                               ; preds = %.preheader29, %46
  %indvars.iv31 = phi i64 [ 0, %.preheader29 ], [ %indvars.iv.next32, %46 ]
  %38 = load ptr, ptr %33, align 8, !tbaa !550
  %39 = icmp eq ptr %38, null
  br i1 %39, label %_ZNK6vectorIPN3smt5enodeELb0EjE4sizeEv.exit26, label %40

40:                                               ; preds = %37
  %41 = getelementptr inbounds i8, ptr %38, i64 -4
  %42 = load i32, ptr %41, align 4, !tbaa !560
  %43 = zext i32 %42 to i64
  br label %_ZNK6vectorIPN3smt5enodeELb0EjE4sizeEv.exit26

_ZNK6vectorIPN3smt5enodeELb0EjE4sizeEv.exit26:    ; preds = %37, %40
  %.0.i25 = phi i64 [ %43, %40 ], [ 0, %37 ]
  %44 = icmp samesign ult i64 %indvars.iv31, %.0.i25
  br i1 %44, label %46, label %.preheader

.preheader:                                       ; preds = %_ZNK6vectorIPN3smt5enodeELb0EjE4sizeEv.exit26
  %45 = getelementptr inbounds nuw i8, ptr %13, i64 8
  br label %49

46:                                               ; preds = %_ZNK6vectorIPN3smt5enodeELb0EjE4sizeEv.exit26
  %47 = getelementptr inbounds nuw ptr, ptr %38, i64 %indvars.iv31
  %48 = load ptr, ptr %47, align 8, !tbaa !570
  tail call void @_ZN3smt12theory_array16add_parent_storeEiPNS_5enodeE(ptr noundef nonnull align 8 dereferenceable(444) %0, i32 noundef %1, ptr noundef %48)
  %indvars.iv.next32 = add nuw nsw i64 %indvars.iv31, 1
  br label %37, !llvm.loop !572

49:                                               ; preds = %.preheader, %58
  %indvars.iv34 = phi i64 [ 0, %.preheader ], [ %indvars.iv.next35, %58 ]
  %50 = load ptr, ptr %45, align 8, !tbaa !550
  %51 = icmp eq ptr %50, null
  br i1 %51, label %_ZNK6vectorIPN3smt5enodeELb0EjE4sizeEv.exit28, label %52

52:                                               ; preds = %49
  %53 = getelementptr inbounds i8, ptr %50, i64 -4
  %54 = load i32, ptr %53, align 4, !tbaa !560
  %55 = zext i32 %54 to i64
  br label %_ZNK6vectorIPN3smt5enodeELb0EjE4sizeEv.exit28

_ZNK6vectorIPN3smt5enodeELb0EjE4sizeEv.exit28:    ; preds = %49, %52
  %.0.i27 = phi i64 [ %55, %52 ], [ 0, %49 ]
  %56 = icmp samesign ult i64 %indvars.iv34, %.0.i27
  br i1 %56, label %58, label %57

57:                                               ; preds = %_ZNK6vectorIPN3smt5enodeELb0EjE4sizeEv.exit28
  ret void

58:                                               ; preds = %_ZNK6vectorIPN3smt5enodeELb0EjE4sizeEv.exit28
  %59 = getelementptr inbounds nuw ptr, ptr %50, i64 %indvars.iv34
  %60 = load ptr, ptr %59, align 8, !tbaa !570
  %61 = load ptr, ptr %0, align 8, !tbaa !3
  %62 = getelementptr inbounds nuw i8, ptr %61, i64 424
  %63 = load ptr, ptr %62, align 8
  tail call void %63(ptr noundef nonnull align 8 dereferenceable(444) %0, i32 noundef %1, ptr noundef %60)
  %indvars.iv.next35 = add nuw nsw i64 %indvars.iv34, 1
  br label %49, !llvm.loop !573
}